; Function Attrs: inlinehint nounwind uwtable
define internal fastcc noundef ptr @dt_masks_dynbuf_init(i64 noundef range(i64 200000, 1000001) %0, ptr noundef %1) unnamed_addr #10 {
  %3 = tail call noalias dereferenceable_or_null(152) ptr @calloc(i64 noundef 1, i64 noundef 152) #23
  %.not = icmp eq ptr %3, null
  br i1 %.not, label %.thread, label %4

4:                                                ; preds = %2
  %5 = getelementptr inbounds nuw i8, ptr %3, i64 8
  %6 = tail call i64 @g_strlcpy(ptr noundef nonnull %5, ptr noundef %1, i64 noundef 128) #19
  %7 = getelementptr inbounds nuw i8, ptr %3, i64 136
  store i64 0, ptr %7, align 8, !tbaa !92
  %8 = shl nuw nsw i64 %0, 2
  %9 = tail call ptr @dt_alloc_aligned(i64 noundef %8) #19
  call void @llvm.assume(i1 true) [ "align"(ptr %9, i64 64) ]
  %.not.i = icmp eq ptr %9, null
  br i1 %.not.i, label %_dt_masks_dynbuf_growto.exit.thread, label %10

_dt_masks_dynbuf_growto.exit.thread:              ; preds = %4
  tail call void (ptr, ...) @dt_print_ext(ptr noundef nonnull @.str.18, ptr noundef nonnull %5, i64 noundef %0) #19
  br label %28

10:                                               ; preds = %4
  %11 = load ptr, ptr %3, align 8, !tbaa !89
  %.not19.i = icmp eq ptr %11, null
  br i1 %.not19.i, label %23, label %12

12:                                               ; preds = %10
  %13 = getelementptr inbounds nuw i8, ptr %3, i64 144
  %14 = load i64, ptr %13, align 8, !tbaa !151
  %15 = shl i64 %14, 2
  tail call void @llvm.memcpy.p0.p0.i64(ptr nonnull align 64 %9, ptr nonnull align 4 %11, i64 %15, i1 false)
  %16 = load i32, ptr getelementptr inbounds nuw (i8, ptr @darktable, i64 8), align 8, !tbaa !121
  %17 = and i32 %16, 4096
  %.not20.i = icmp eq i32 %17, 0
  br i1 %.not20.i, label %21, label %18

18:                                               ; preds = %12
  %19 = load i64, ptr %13, align 8, !tbaa !151
  %20 = load ptr, ptr %3, align 8, !tbaa !89
  tail call void (ptr, ...) @dt_print_ext(ptr noundef nonnull @.str.19, ptr noundef nonnull %5, i64 noundef %19, ptr noundef nonnull %9, ptr noundef %20) #19
  br label %21

21:                                               ; preds = %18, %12
  %22 = load ptr, ptr %3, align 8, !tbaa !89
  tail call void @free(ptr noundef %22) #19
  br label %23

23:                                               ; preds = %21, %10
  %24 = getelementptr inbounds nuw i8, ptr %3, i64 144
  store i64 %0, ptr %24, align 8, !tbaa !151
  store ptr %9, ptr %3, align 8, !tbaa !89
  %25 = load i32, ptr getelementptr inbounds nuw (i8, ptr @darktable, i64 8), align 8, !tbaa !121
  %26 = and i32 %25, 4096
  %.not13 = icmp eq i32 %26, 0
  br i1 %.not13, label %.thread, label %27

27:                                               ; preds = %23
  tail call void (ptr, ...) @dt_print_ext(ptr noundef nonnull @.str.17, ptr noundef nonnull %5, i64 noundef %0, ptr noundef nonnull %9) #19
  br label %28

28:                                               ; preds = %_dt_masks_dynbuf_growto.exit.thread, %27
  %.pr = load ptr, ptr %3, align 8, !tbaa !89
  %29 = icmp eq ptr %.pr, null
  br i1 %29, label %30, label %.thread

30:                                               ; preds = %28
  tail call void @free(ptr noundef nonnull %3) #19
  br label %.thread

.thread:                                          ; preds = %23, %28, %30, %2
  %.0 = phi ptr [ null, %30 ], [ %3, %28 ], [ null, %2 ], [ %3, %23 ]
  ret ptr %.0
}